Certificate:
    Data:
        Version: 3 (0x2)
        Serial Number: 4 (0x4)
        Signature Algorithm: md5WithRSAEncryption
        Issuer: C=US, ST=NJ, L=Middletown, O=PrettyGoodSoftware, CN=encadislinux/emailAddress=me@PrettyGoodSoftware.com
        Validity
            Not Before: Mar 19 22:44:05 2007 GMT
            Not After : Mar 16 22:44:05 2017 GMT
        Subject: C=US, ST=NJ, O=PrettyGoodSoftware, CN=client3/emailAddress=me@PrettyGoodSoftware.com
        Subject Public Key Info:
            Public Key Algorithm: rsaEncryption
            RSA Public Key: (1024 bit)
                Modulus (1024 bit):
                    00:ed:de:72:77:c2:74:f2:75:8f:03:a5:07:25:d7:
                    6a:6a:c9:08:ed:0a:d9:bb:2a:c4:d8:d0:33:80:53:
                    7a:3c:ab:1c:59:e4:9e:48:f9:f2:0c:c0:96:68:b6:
                    75:42:b6:80:b1:0c:79:94:1a:69:15:eb:dc:67:37:
                    b2:c1:b5:16:40:29:74:e2:28:66:28:44:6a:c8:38:
                    97:3f:4b:46:e5:58:ab:28:51:ed:5b:1c:44:ac:d9:
                    38:9f:27:fb:6f:e7:8a:fa:c0:1a:a9:3d:cf:73:69:
                    7a:58:2c:88:20:80:89:10:eb:4e:46:fe:5f:84:ea:
                    01:77:83:1e:2c:e2:7a:6d:77
                Exponent: 65537 (0x10001)
        X509v3 extensions:
            X509v3 Basic Constraints: 
                CA:FALSE
            Netscape Comment: 
                OpenSSL Generated Certificate
            X509v3 Subject Key Identifier: 
                37:26:D1:B2:A7:D6:86:BB:2F:BB:10:FF:D9:F1:E0:FE:31:6E:B2:00
            X509v3 Authority Key Identifier: 
                keyid:C8:04:F8:07:28:DE:7F:97:F4:50:4B:8B:DF:71:96:64:C1:25:FB:29
                DirName:/C=US/ST=NJ/L=Middletown/O=PrettyGoodSoftware/CN=encadislinux/emailAddress=me@PrettyGoodSoftware.com
                serial:89:13:23:80:9F:45:B0:FE

    Signature Algorithm: md5WithRSAEncryption
        03:30:dc:6c:e6:ef:b1:fb:e2:4a:55:44:70:88:ad:82:4b:9b:
        b8:86:40:9b:8c:43:0e:e0:64:0e:f7:76:23:4a:1f:d0:c3:f5:
        6b:e3:aa:4a:a6:57:7e:7d:b4:85:53:f1:53:74:78:11:95:c8:
        52:8e:ae:27:8b:54:f4:6b:8d:3e:9a:64:e3:db:19:1a:59:5f:
        35:ae:4a:ca:4d:84:cf:b7:32:b1:9f:76:f1:a9:97:39:02:b8:
        22:49:88:df:52:2f:d8:26:9e:58:16:11:1e:d4:07:6d:01:20:
        c0:14:27:97:29:ec:2a:39:b5:a6:aa:6f:f8:a1:99:3a:e6:a4:
        de:b8
-----BEGIN CERTIFICATE-----
MIIDmjCCAwOgAwIBAgIBBDANBgkqhkiG9w0BAQQFADCBjTELMAkGA1UEBhMCVVMx
CzAJBgNVBAgTAk5KMRMwEQYDVQQHEwpNaWRkbGV0b3duMRswGQYDVQQKExJQcmV0
dHlHb29kU29mdHdhcmUxFTATBgNVBAMTDGVuY2FkaXNsaW51eDEoMCYGCSqGSIb3
DQEJARYZbWVAUHJldHR5R29vZFNvZnR3YXJlLmNvbTAeFw0wNzAzMTkyMjQ0MDVa
Fw0xNzAzMTYyMjQ0MDVaMHMxCzAJBgNVBAYTAlVTMQswCQYDVQQIEwJOSjEbMBkG
A1UEChMSUHJldHR5R29vZFNvZnR3YXJlMRAwDgYDVQQDEwdjbGllbnQzMSgwJgYJ
KoZIhvcNAQkBFhltZUBQcmV0dHlHb29kU29mdHdhcmUuY29tMIGfMA0GCSqGSIb3
DQEBAQUAA4GNADCBiQKBgQDt3nJ3wnTydY8DpQcl12pqyQjtCtm7KsTY0DOAU3o8
qxxZ5J5I+fIMwJZotnVCtoCxDHmUGmkV69xnN7LBtRZAKXTiKGYoRGrIOJc/S0bl
WKsoUe1bHESs2TifJ/tv54r6wBqpPc9zaXpYLIgggIkQ605G/l+E6gF3gx4s4npt
dwIDAQABo4IBITCCAR0wCQYDVR0TBAIwADAsBglghkgBhvhCAQ0EHxYdT3BlblNT
TCBHZW5lcmF0ZWQgQ2VydGlmaWNhdGUwHQYDVR0OBBYEFDcm0bKn1oa7L7sQ/9nx
4P4xbrIAMIHCBgNVHSMEgbowgbeAFMgE+Aco3n+X9FBLi99xlmTBJfspoYGTpIGQ
MIGNMQswCQYDVQQGEwJVUzELMAkGA1UECBMCTkoxEzARBgNVBAcTCk1pZGRsZXRv
d24xGzAZBgNVBAoTElByZXR0eUdvb2RTb2Z0d2FyZTEVMBMGA1UEAxMMZW5jYWRp
c2xpbnV4MSgwJgYJKoZIhvcNAQkBFhltZUBQcmV0dHlHb29kU29mdHdhcmUuY29t
ggkAiRMjgJ9FsP4wDQYJKoZIhvcNAQEEBQADgYEAAzDcbObvsfviSlVEcIitgkub
uIZAm4xDDuBkDvd2I0of0MP1a+OqSqZXfn20hVPxU3R4EZXIUo6uJ4tU9GuNPppk
49sZGllfNa5Kyk2Ez7cysZ928amXOQK4IkmI31Iv2CaeWBYRHtQHbQEgwBQnlyns
Kjm1pqpv+KGZOuak3rg=
-----END CERTIFICATE-----
